; Function Attrs: mustprogress uwtable
define noundef i64 @_ZNK32pxrInternal_v0_24__pxrReserved__13UsdStageCache4SizeEv(ptr noundef nonnull align 8 dereferenceable(48) %0) local_unnamed_addr #2 align 2 personality ptr @__gxx_personality_v0 {
  %2 = getelementptr inbounds nuw i8, ptr %0, i64 8
  %3 = tail call noundef i32 @pthread_mutex_lock(ptr noundef nonnull %2) #18
  %.not.i.i = icmp eq i32 %3, 0
  br i1 %.not.i.i, label %_ZNSt10lock_guardISt5mutexEC2ERS0_.exit, label %4

4:                                                ; preds = %1
  tail call void @_ZSt20__throw_system_errori(i32 noundef %3) #19
  unreachable

_ZNSt10lock_guardISt5mutexEC2ERS0_.exit:          ; preds = %1
  %5 = load ptr, ptr %0, align 8
  %6 = getelementptr i8, ptr %5, i64 24
  %.val = load i64, ptr %6, align 8
  %7 = tail call noundef i32 @pthread_mutex_unlock(ptr noundef nonnull %2) #18
  ret i64 %.val
}